; Function Attrs: mustprogress nounwind uwtable
define void @_ZN4LIEF5MachO16RelocationObject5valueEi(ptr noundef nonnull align 8 captures(none) dereferenceable(64) %0, i32 noundef %1) local_unnamed_addr #1 align 2 {
  %3 = alloca %"struct.spdlog::source_loc", align 8
  %4 = getelementptr inbounds nuw i8, ptr %0, i64 57
  %5 = load i8, ptr %4, align 1, !tbaa !25, !range !32, !noundef !33
  %6 = trunc nuw i8 %5 to i1
  br i1 %6, label %10, label %7

7:                                                ; preds = %2
  %8 = tail call noundef nonnull align 8 dereferenceable(16) ptr @_ZN4LIEF7logging6Logger8instanceEPKc(ptr noundef nonnull @.str.2) #22
  %9 = load ptr, ptr %8, align 8, !tbaa !36
  call void @llvm.lifetime.start.p0(i64 24, ptr nonnull %3)
  call void @llvm.memset.p0.i64(ptr noundef nonnull align 8 dereferenceable(24) %3, i8 0, i64 24, i1 false)
  tail call void @_ZN6spdlog6logger4log_IJEEEvNS_10source_locENS_5level10level_enumEN3fmt3v1017basic_string_viewIcEEDpOT_(ptr noundef nonnull align 8 dereferenceable(208) %9, ptr noundef nonnull byval(%"struct.spdlog::source_loc") align 8 %3, i32 noundef 4, ptr nonnull @.str, i64 40)
  call void @llvm.lifetime.end.p0(i64 24, ptr nonnull %3)
  br label %12

10:                                               ; preds = %2
  %11 = getelementptr inbounds nuw i8, ptr %0, i64 60
  store i32 %1, ptr %11, align 4, !tbaa !26
  br label %12

12:                                               ; preds = %10, %7
  ret void
}